; Function Attrs: nofree norecurse nosync nounwind memory(readwrite, inaccessiblemem: none) uwtable
define internal void @color_correlation_rgb(ptr noundef readonly captures(none) %0, i32 noundef %1, ptr noundef readonly captures(none) %2, i32 noundef %3, i32 noundef %4, i32 noundef %5) #6 {
  %7 = icmp sgt i32 %5, 0
  br i1 %7, label %.preheader.lr.ph, label %color_correlation.exit

.preheader.lr.ph:                                 ; preds = %6
  %8 = icmp sgt i32 %4, 0
  %.neg.i = mul i32 %4, -3
  %9 = add i32 %.neg.i, %1
  %10 = sext i32 %9 to i64
  %11 = sext i32 %3 to i64
  br i1 %8, label %.preheader.us.preheader, label %color_correlation.exit

.preheader.us.preheader:                          ; preds = %.preheader.lr.ph
  %12 = load ptr, ptr %2, align 8, !tbaa !57
  %13 = getelementptr inbounds nuw i8, ptr %2, i64 8
  %14 = load ptr, ptr %13, align 8, !tbaa !57
  %15 = getelementptr inbounds nuw i8, ptr %2, i64 16
  %16 = load ptr, ptr %15, align 8, !tbaa !57
  %17 = load ptr, ptr %0, align 8, !tbaa !63
  %wide.trip.count = zext nneg i32 %4 to i64
  br label %.preheader.us

.preheader.us:                                    ; preds = %.preheader.us.preheader, %._crit_edge.us
  %.0.i18.us = phi ptr [ %50, %._crit_edge.us ], [ %17, %.preheader.us.preheader ]
  %.041.i17.us = phi ptr [ %53, %._crit_edge.us ], [ %16, %.preheader.us.preheader ]
  %.042.i16.us = phi ptr [ %52, %._crit_edge.us ], [ %14, %.preheader.us.preheader ]
  %.043.i15.us = phi ptr [ %51, %._crit_edge.us ], [ %12, %.preheader.us.preheader ]
  %.044.i14.us = phi i32 [ %54, %._crit_edge.us ], [ 0, %.preheader.us.preheader ]
  br label %18

18:                                               ; preds = %.preheader.us, %18
  %indvars.iv = phi i64 [ 0, %.preheader.us ], [ %indvars.iv.next, %18 ]
  %.1.i13.us = phi ptr [ %.0.i18.us, %.preheader.us ], [ %49, %18 ]
  %19 = getelementptr inbounds nuw float, ptr %.043.i15.us, i64 %indvars.iv
  %20 = load float, ptr %19, align 4, !tbaa !74
  %21 = getelementptr inbounds nuw float, ptr %.042.i16.us, i64 %indvars.iv
  %22 = load float, ptr %21, align 4, !tbaa !74
  %23 = fmul nsz float %22, 0x3FE6A09E60000000
  %24 = tail call nsz float @llvm.fmuladd.f32(float %20, float 0x3FE279A740000000, float %23)
  %25 = getelementptr inbounds nuw float, ptr %.041.i17.us, i64 %indvars.iv
  %26 = load float, ptr %25, align 4, !tbaa !74
  %27 = tail call nsz float @llvm.fmuladd.f32(float %26, float 0x3FDA20BD80000000, float %24)
  %28 = fptosi float %27 to i32
  %.not.i9.us = icmp ult i32 %28, 256
  %isnotneg.i10.us = icmp sgt i32 %28, -1
  %29 = sext i1 %isnotneg.i10.us to i8
  %30 = trunc nuw i32 %28 to i8
  %.0.i11.us = select i1 %.not.i9.us, i8 %30, i8 %29
  store i8 %.0.i11.us, ptr %.1.i13.us, align 1, !tbaa !83
  %31 = load float, ptr %19, align 4, !tbaa !74
  %32 = load float, ptr %25, align 4, !tbaa !74
  %33 = fmul nsz float %32, 0xBFEA20BD80000000
  %34 = tail call nsz float @llvm.fmuladd.f32(float %31, float 0x3FE279A740000000, float %33)
  %35 = fptosi float %34 to i32
  %.not.i6.us = icmp ult i32 %35, 256
  %isnotneg.i7.us = icmp sgt i32 %35, -1
  %36 = sext i1 %isnotneg.i7.us to i8
  %37 = trunc nuw i32 %35 to i8
  %.0.i8.us = select i1 %.not.i6.us, i8 %37, i8 %36
  %38 = getelementptr inbounds nuw i8, ptr %.1.i13.us, i64 1
  store i8 %.0.i8.us, ptr %38, align 1, !tbaa !83
  %39 = load float, ptr %19, align 4, !tbaa !74
  %40 = load float, ptr %21, align 4, !tbaa !74
  %41 = fmul nsz float %40, 0xBFE6A09E60000000
  %42 = tail call nsz float @llvm.fmuladd.f32(float %39, float 0x3FE279A740000000, float %41)
  %43 = load float, ptr %25, align 4, !tbaa !74
  %44 = tail call nsz float @llvm.fmuladd.f32(float %43, float 0x3FDA20BD80000000, float %42)
  %45 = fptosi float %44 to i32
  %.not.i.us = icmp ult i32 %45, 256
  %isnotneg.i.us = icmp sgt i32 %45, -1
  %46 = sext i1 %isnotneg.i.us to i8
  %47 = trunc nuw i32 %45 to i8
  %.0.i5.us = select i1 %.not.i.us, i8 %47, i8 %46
  %48 = getelementptr inbounds nuw i8, ptr %.1.i13.us, i64 2
  store i8 %.0.i5.us, ptr %48, align 1, !tbaa !83
  %49 = getelementptr inbounds nuw i8, ptr %.1.i13.us, i64 3
  %indvars.iv.next = add nuw nsw i64 %indvars.iv, 1
  %exitcond.not = icmp eq i64 %indvars.iv.next, %wide.trip.count
  br i1 %exitcond.not, label %._crit_edge.us, label %18, !llvm.loop !86

._crit_edge.us:                                   ; preds = %18
  %50 = getelementptr inbounds i8, ptr %49, i64 %10
  %51 = getelementptr inbounds float, ptr %.043.i15.us, i64 %11
  %52 = getelementptr inbounds float, ptr %.042.i16.us, i64 %11
  %53 = getelementptr inbounds float, ptr %.041.i17.us, i64 %11
  %54 = add nuw nsw i32 %.044.i14.us, 1
  %exitcond21.not = icmp eq i32 %54, %5
  br i1 %exitcond21.not, label %color_correlation.exit, label %.preheader.us, !llvm.loop !87

color_correlation.exit:                           ; preds = %._crit_edge.us, %.preheader.lr.ph, %6
  ret void
}